target datalayout = "e-m:e-p270:32:32-p271:32:32-p272:64:64-i64:64-i128:128-f80:128-n8:16:32:64-S128"
target triple = "x86_64-pc-linux-gnu"

%struct.expert_field = type { i32, i32 }
%struct._address = type { i32, i32, ptr, ptr }
%struct.pfcp_session_args = type { ptr, ptr, i64, %struct._address, i8, %struct.pfcp_rule_ids }
%struct.pfcp_rule_ids = type { i32, i32, i32, i32, i32, i32, i32 }

@hf_pfcp_bar_id = internal global i32 0, align 4
@ei_pfcp_ie_data_not_decoded = internal global %struct.expert_field zeroinitializer, align 4
@.str.2658 = private unnamed_addr constant [3 x i8] c"%u\00", align 1

; Function Attrs: null_pointer_is_valid sspstrong uwtable
define internal i32 @decode_pfcp_bar_id(ptr noundef %0, ptr noundef %1, ptr noundef %2, ptr noundef %3, i16 noundef zeroext %4, ptr noundef %5) #0 {
  %7 = alloca ptr, align 8
  %8 = alloca ptr, align 8
  %9 = alloca ptr, align 8
  %10 = alloca ptr, align 8
  %11 = alloca i16, align 2
  %12 = alloca ptr, align 8
  %13 = alloca i32, align 4
  store ptr %0, ptr %7, align 8
  store ptr %1, ptr %8, align 8
  store ptr %2, ptr %9, align 8
  store ptr %3, ptr %10, align 8
  store i16 %4, ptr %11, align 2
  store ptr %5, ptr %12, align 8
  call void @llvm.lifetime.start.p0(i64 4, ptr %13) #13
  %14 = load ptr, ptr %9, align 8
  %15 = load i32, ptr @hf_pfcp_bar_id, align 4
  %16 = load ptr, ptr %7, align 8
  %17 = load i16, ptr %11, align 2
  %18 = zext i16 %17 to i32
  %19 = call ptr @proto_tree_add_item_ret_uint(ptr noundef %14, i32 noundef %15, ptr noundef %16, i32 noundef %18, i32 noundef 1, i32 noundef 0, ptr noundef %13)
  %20 = load i16, ptr %11, align 2
  %21 = add i16 %20, 1
  store i16 %21, ptr %11, align 2
  %22 = load ptr, ptr %10, align 8
  %23 = load i32, ptr %13, align 4
  call void (ptr, ptr, ...) @proto_item_append_text(ptr noundef %22, ptr noundef @.str.2658, i32 noundef %23)
  %24 = load ptr, ptr %12, align 8
  %25 = icmp ne ptr %24, null
  br i1 %25, label %26, label %31

26:                                               ; preds = %6
  %27 = load i32, ptr %13, align 4
  %28 = load ptr, ptr %12, align 8
  %29 = getelementptr inbounds nuw %struct.pfcp_session_args, ptr %28, i32 0, i32 5
  %30 = getelementptr inbounds nuw %struct.pfcp_rule_ids, ptr %29, i32 0, i32 4
  store i32 %27, ptr %30, align 4
  br label %31

31:                                               ; preds = %26, %6
  %32 = load i16, ptr %11, align 2
  %33 = zext i16 %32 to i32
  call void @llvm.lifetime.end.p0(i64 4, ptr %13) #13
  ret i32 %33
}

; Function Attrs: null_pointer_is_valid sspstrong uwtable
define internal void @dissect_pfcp_bar_id(ptr noundef %0, ptr noundef %1, ptr noundef %2, ptr noundef %3, i16 noundef zeroext %4, i8 noundef zeroext %5, ptr noundef %6) #0 {
  %8 = alloca ptr, align 8
  %9 = alloca ptr, align 8
  %10 = alloca ptr, align 8
  %11 = alloca ptr, align 8
  %12 = alloca i16, align 2
  %13 = alloca i8, align 1
  %14 = alloca ptr, align 8
  %15 = alloca i32, align 4
  store ptr %0, ptr %8, align 8
  store ptr %1, ptr %9, align 8
  store ptr %2, ptr %10, align 8
  store ptr %3, ptr %11, align 8
  store i16 %4, ptr %12, align 2
  store i8 %5, ptr %13, align 1
  store ptr %6, ptr %14, align 8
  call void @llvm.lifetime.start.p0(i64 4, ptr %15) #13
  store i32 0, ptr %15, align 4
  %16 = load ptr, ptr %8, align 8
  %17 = load ptr, ptr %9, align 8
  %18 = load ptr, ptr %10, align 8
  %19 = load ptr, ptr %11, align 8
  %20 = load i32, ptr %15, align 4
  %21 = trunc i32 %20 to i16
  %22 = load ptr, ptr %14, align 8
  %23 = call i32 @decode_pfcp_bar_id(ptr noundef %16, ptr noundef %17, ptr noundef %18, ptr noundef %19, i16 noundef zeroext %21, ptr noundef %22)
  store i32 %23, ptr %15, align 4
  %24 = load i32, ptr %15, align 4
  %25 = load i16, ptr %12, align 2
  %26 = zext i16 %25 to i32
  %27 = icmp slt i32 %24, %26
  br i1 %27, label %28, label %34

28:                                               ; preds = %7
  %29 = load ptr, ptr %10, align 8
  %30 = load ptr, ptr %9, align 8
  %31 = load ptr, ptr %8, align 8
  %32 = load i32, ptr %15, align 4
  %33 = call ptr @proto_tree_add_expert(ptr noundef %29, ptr noundef %30, ptr noundef @ei_pfcp_ie_data_not_decoded, ptr noundef %31, i32 noundef %32, i32 noundef -1)
  br label %34

34:                                               ; preds = %28, %7
  call void @llvm.lifetime.end.p0(i64 4, ptr %15) #13
  ret void
}